target datalayout = "e-m:e-p270:32:32-p271:32:32-p272:64:64-i64:64-i128:128-f80:128-n8:16:32:64-S128"
target triple = "x86_64-pc-linux-gnu"

%"class.cxx20::expected" = type { %"struct.cxx20::detail::expected_move_assign_base" }
%"struct.cxx20::detail::expected_move_assign_base" = type { %"struct.cxx20::detail::expected_copy_assign_base" }
%"struct.cxx20::detail::expected_copy_assign_base" = type { %"struct.cxx20::detail::expected_move_base" }
%"struct.cxx20::detail::expected_move_base" = type { %"struct.cxx20::detail::expected_copy_base" }
%"struct.cxx20::detail::expected_copy_base" = type { %"struct.cxx20::detail::expected_operations_base" }
%"struct.cxx20::detail::expected_operations_base" = type { %"struct.cxx20::detail::expected_view_base" }
%"struct.cxx20::detail::expected_view_base" = type { %"struct.cxx20::detail::expected_storage_base" }
%"struct.cxx20::detail::expected_storage_base" = type { i8, %union.anon }
%union.anon = type { %"class.cxx20::unexpected" }
%"class.cxx20::unexpected" = type { %"class.WasmEdge::ErrCode" }
%"class.WasmEdge::ErrCode" = type { %"union.WasmEdge::ErrCode::InnerT" }
%"union.WasmEdge::ErrCode::InnerT" = type { i32 }
%"class.std::variant" = type { %"struct.std::__detail::__variant::_Variant_base.base.60", [3 x i8] }
%"struct.std::__detail::__variant::_Variant_base.base.60" = type { %"struct.std::__detail::__variant::_Move_assign_base.base.59" }
%"struct.std::__detail::__variant::_Move_assign_base.base.59" = type { %"struct.std::__detail::__variant::_Copy_assign_base.base.58" }
%"struct.std::__detail::__variant::_Copy_assign_base.base.58" = type { %"struct.std::__detail::__variant::_Move_ctor_base.base.57" }
%"struct.std::__detail::__variant::_Move_ctor_base.base.57" = type { %"struct.std::__detail::__variant::_Copy_ctor_base.base.56" }
%"struct.std::__detail::__variant::_Copy_ctor_base.base.56" = type { %"struct.std::__detail::__variant::_Variant_storage.base.55" }
%"struct.std::__detail::__variant::_Variant_storage.base.55" = type { %"union.std::__detail::__variant::_Variadic_union", i8 }
%"union.std::__detail::__variant::_Variadic_union" = type { %"struct.std::__detail::__variant::_Uninitialized" }
%"struct.std::__detail::__variant::_Uninitialized" = type { %"class.WasmEdge::AST::Component::DescTypeIndex" }
%"class.WasmEdge::AST::Component::DescTypeIndex" = type <{ i32, i8, [3 x i8] }>
%class.anon = type { ptr }

; Function Attrs: mustprogress uwtable
define internal void @"_ZZN8WasmEdge6Loader6Loader10loadExportERNS_3AST9Component6ExportEENK3$_0clESt7variantIJNS3_13DescTypeIndexESt8optionalIjES7_IJjNS3_11PrimValTypeEEEEE"(ptr dead_on_unwind noalias writable sret(%"class.cxx20::expected") align 4 %0, ptr noundef nonnull align 8 dereferenceable(8) %1, i64 %2, i8 %3) #0 align 2 {
  %5 = alloca ptr, align 8
  %6 = alloca %"class.std::variant", align 4
  %7 = alloca { i64, i8 }, align 4
  %8 = alloca ptr, align 8
  store ptr %0, ptr %5, align 8
  %9 = getelementptr inbounds { i64, i8 }, ptr %7, i32 0, i32 0
  store i64 %2, ptr %9, align 4
  %10 = getelementptr inbounds { i64, i8 }, ptr %7, i32 0, i32 1
  store i8 %3, ptr %10, align 4
  call void @llvm.memcpy.p0.p0.i64(ptr align 4 %6, ptr align 4 %7, i64 12, i1 false)
  store ptr %1, ptr %8, align 8
  %11 = load ptr, ptr %8, align 8
  %12 = getelementptr inbounds %class.anon, ptr %11, i32 0, i32 0
  %13 = load ptr, ptr %12, align 8
  call void @_ZN8WasmEdge6Loader6Loader14loadExternDescERSt7variantIJNS_3AST9Component13DescTypeIndexESt8optionalIjES2_IJjNS4_11PrimValTypeEEEEE(ptr dead_on_unwind writable sret(%"class.cxx20::expected") align 4 %0, ptr noundef nonnull align 8 dereferenceable(360) %13, ptr noundef nonnull align 4 dereferenceable(9) %6)
  ret void
}

; Function Attrs: mustprogress nounwind uwtable
define linkonce_odr hidden noundef ptr @_ZNKSt9_Any_data9_M_accessEv(ptr noundef nonnull align 8 dereferenceable(16) %0) #2 comdat align 2 {
  %2 = alloca ptr, align 8
  store ptr %0, ptr %2, align 8
  %3 = load ptr, ptr %2, align 8
  %4 = getelementptr inbounds [16 x i8], ptr %3, i64 0, i64 0
  ret ptr %4
}

; Function Attrs: mustprogress uwtable
define internal void @"_ZSt13__invoke_implIN5cxx208expectedIvN8WasmEdge7ErrCodeEEERZNS2_6Loader6Loader10loadExportERNS2_3AST9Component6ExportEE3$_0JRSt7variantIJNS8_13DescTypeIndexESt8optionalIjESD_IJjNS8_11PrimValTypeEEEEEEET_St14__invoke_otherOT0_DpOT1_"(ptr dead_on_unwind noalias writable sret(%"class.cxx20::expected") align 4 %0, ptr noundef nonnull align 8 dereferenceable(8) %1, ptr noundef nonnull align 4 dereferenceable(9) %2) #0 {
  %4 = alloca ptr, align 8
  %5 = alloca ptr, align 8
  %6 = alloca ptr, align 8
  %7 = alloca %"class.std::variant", align 4
  %8 = alloca { i64, i8 }, align 4
  store ptr %0, ptr %4, align 8
  store ptr %1, ptr %5, align 8
  store ptr %2, ptr %6, align 8
  %9 = load ptr, ptr %5, align 8
  %10 = load ptr, ptr %6, align 8
  call void @llvm.memcpy.p0.p0.i64(ptr align 4 %7, ptr align 4 %10, i64 12, i1 false)
  call void @llvm.memcpy.p0.p0.i64(ptr align 4 %8, ptr align 4 %7, i64 12, i1 false)
  %11 = getelementptr inbounds { i64, i8 }, ptr %8, i32 0, i32 0
  %12 = load i64, ptr %11, align 4
  %13 = getelementptr inbounds { i64, i8 }, ptr %8, i32 0, i32 1
  %14 = load i8, ptr %13, align 4
  call void @"_ZZN8WasmEdge6Loader6Loader10loadExportERNS_3AST9Component6ExportEENK3$_0clESt7variantIJNS3_13DescTypeIndexESt8optionalIjES7_IJjNS3_11PrimValTypeEEEEE"(ptr dead_on_unwind writable sret(%"class.cxx20::expected") align 4 %0, ptr noundef nonnull align 8 dereferenceable(8) %9, i64 %12, i8 %14)
  ret void
}

; Function Attrs: mustprogress nounwind uwtable
define internal noundef nonnull align 8 dereferenceable(8) ptr @"_ZNKSt9_Any_data9_M_accessIZN8WasmEdge6Loader6Loader10loadExportERNS1_3AST9Component6ExportEE3$_0EERKT_v"(ptr noundef nonnull align 8 dereferenceable(16) %0) #2 align 2 {
  %2 = alloca ptr, align 8
  store ptr %0, ptr %2, align 8
  %3 = load ptr, ptr %2, align 8
  %4 = call noundef ptr @_ZNKSt9_Any_data9_M_accessEv(ptr noundef nonnull align 8 dereferenceable(16) %3) #14
  ret ptr %4
}

; Function Attrs: mustprogress uwtable
define internal void @"_ZSt10__invoke_rIN5cxx208expectedIvN8WasmEdge7ErrCodeEEERZNS2_6Loader6Loader10loadExportERNS2_3AST9Component6ExportEE3$_0JRSt7variantIJNS8_13DescTypeIndexESt8optionalIjESD_IJjNS8_11PrimValTypeEEEEEEENSt9enable_ifIX16is_invocable_r_vIT_T0_DpT1_EESM_E4typeEOSN_DpOSO_"(ptr dead_on_unwind noalias writable sret(%"class.cxx20::expected") align 4 %0, ptr noundef nonnull align 8 dereferenceable(8) %1, ptr noundef nonnull align 4 dereferenceable(9) %2) #0 {
  %4 = alloca ptr, align 8
  %5 = alloca ptr, align 8
  %6 = alloca ptr, align 8
  store ptr %0, ptr %4, align 8
  store ptr %1, ptr %5, align 8
  store ptr %2, ptr %6, align 8
  %7 = load ptr, ptr %5, align 8
  %8 = load ptr, ptr %6, align 8
  call void @"_ZSt13__invoke_implIN5cxx208expectedIvN8WasmEdge7ErrCodeEEERZNS2_6Loader6Loader10loadExportERNS2_3AST9Component6ExportEE3$_0JRSt7variantIJNS8_13DescTypeIndexESt8optionalIjESD_IJjNS8_11PrimValTypeEEEEEEET_St14__invoke_otherOT0_DpOT1_"(ptr dead_on_unwind writable sret(%"class.cxx20::expected") align 4 %0, ptr noundef nonnull align 8 dereferenceable(8) %7, ptr noundef nonnull align 4 dereferenceable(9) %8)
  ret void
}

; Function Attrs: mustprogress nounwind uwtable
define internal noundef ptr @"_ZNSt14_Function_base13_Base_managerIZN8WasmEdge6Loader6Loader10loadExportERNS1_3AST9Component6ExportEE3$_0E14_M_get_pointerERKSt9_Any_data"(ptr noundef nonnull align 8 dereferenceable(16) %0) #2 align 2 {
  %2 = alloca ptr, align 8
  %3 = alloca ptr, align 8
  store ptr %0, ptr %2, align 8
  %4 = load ptr, ptr %2, align 8
  %5 = call noundef nonnull align 8 dereferenceable(8) ptr @"_ZNKSt9_Any_data9_M_accessIZN8WasmEdge6Loader6Loader10loadExportERNS1_3AST9Component6ExportEE3$_0EERKT_v"(ptr noundef nonnull align 8 dereferenceable(16) %4) #14
  store ptr %5, ptr %3, align 8
  %6 = load ptr, ptr %3, align 8
  ret ptr %6
}

; Function Attrs: mustprogress uwtable
define internal void @"_ZNSt17_Function_handlerIFN5cxx208expectedIvN8WasmEdge7ErrCodeEEERSt7variantIJNS2_3AST9Component13DescTypeIndexESt8optionalIjES5_IJjNS7_11PrimValTypeEEEEEEZNS2_6Loader6Loader10loadExportERNS7_6ExportEE3$_0E9_M_invokeERKSt9_Any_dataSE_"(ptr dead_on_unwind noalias writable sret(%"class.cxx20::expected") align 4 %0, ptr noundef nonnull align 8 dereferenceable(16) %1, ptr noundef nonnull align 4 dereferenceable(9) %2) #0 align 2 {
  %4 = alloca ptr, align 8
  %5 = alloca ptr, align 8
  %6 = alloca ptr, align 8
  store ptr %0, ptr %4, align 8
  store ptr %1, ptr %5, align 8
  store ptr %2, ptr %6, align 8
  %7 = load ptr, ptr %5, align 8
  %8 = call noundef ptr @"_ZNSt14_Function_base13_Base_managerIZN8WasmEdge6Loader6Loader10loadExportERNS1_3AST9Component6ExportEE3$_0E14_M_get_pointerERKSt9_Any_data"(ptr noundef nonnull align 8 dereferenceable(16) %7) #14
  %9 = load ptr, ptr %6, align 8
  call void @"_ZSt10__invoke_rIN5cxx208expectedIvN8WasmEdge7ErrCodeEEERZNS2_6Loader6Loader10loadExportERNS2_3AST9Component6ExportEE3$_0JRSt7variantIJNS8_13DescTypeIndexESt8optionalIjESD_IJjNS8_11PrimValTypeEEEEEEENSt9enable_ifIX16is_invocable_r_vIT_T0_DpT1_EESM_E4typeEOSN_DpOSO_"(ptr dead_on_unwind writable sret(%"class.cxx20::expected") align 4 %0, ptr noundef nonnull align 8 dereferenceable(8) %8, ptr noundef nonnull align 4 dereferenceable(9) %9)
  ret void
}