; Function Attrs: mustprogress uwtable
define internal void @"_ZNSt17_Function_handlerIFN5cxx208expectedIvN8WasmEdge7ErrCodeEEERSt7variantIJNS2_3AST9Component13DescTypeIndexESt8optionalIjES5_IJjNS7_11PrimValTypeEEEEEEZNS2_6Loader6Loader10loadExportERNS7_6ExportEE3$_0E9_M_invokeERKSt9_Any_dataSE_"(ptr dead_on_unwind noalias writable sret(%"class.cxx20::expected") align 4 %0, ptr nocapture noundef nonnull readonly align 8 dereferenceable(16) %1, ptr nocapture noundef nonnull readonly align 4 dereferenceable(9) %2) #0 align 2 {
  %4 = alloca %"class.std::variant", align 8
  %.val = load ptr, ptr %1, align 8
  %.val2 = load i64, ptr %2, align 4
  %5 = getelementptr inbounds i8, ptr %2, i64 8
  %.val3 = load i8, ptr %5, align 4
  call void @llvm.lifetime.start.p0(i64 12, ptr nonnull %4), !noalias !236
  store i64 %.val2, ptr %4, align 8, !noalias !241
  %.sroa.2.0..sroa_idx.i.i.i = getelementptr inbounds i8, ptr %4, i64 8
  store i8 %.val3, ptr %.sroa.2.0..sroa_idx.i.i.i, align 8, !noalias !241
  call void @_ZN8WasmEdge6Loader6Loader14loadExternDescERSt7variantIJNS_3AST9Component13DescTypeIndexESt8optionalIjES2_IJjNS4_11PrimValTypeEEEEE(ptr dead_on_unwind writable sret(%"class.cxx20::expected") align 4 %0, ptr noundef nonnull align 8 dereferenceable(360) %.val, ptr noundef nonnull align 4 dereferenceable(9) %4)
  call void @llvm.lifetime.end.p0(i64 12, ptr nonnull %4), !noalias !236
  ret void
}